; Function Attrs: mustprogress uwtable
define internal fastcc void @_ZL14_VerifyDoubledRKSt6vectorIiSaIiEE(ptr nocapture noundef nonnull readonly align 8 dereferenceable(24) %0) unnamed_addr #3 {
  %2 = alloca %"struct.pxrInternal_v0_24__pxrReserved__::Tf_DiagnosticLiteHelper", align 8
  %3 = getelementptr inbounds nuw i8, ptr %0, i64 8
  %4 = load ptr, ptr %3, align 8
  %5 = load ptr, ptr %0, align 8
  %.not13 = icmp eq ptr %4, %5
  br i1 %.not13, label %._crit_edge, label %.lr.ph

.lr.ph:                                           ; preds = %1, %28
  %6 = phi ptr [ %29, %28 ], [ %5, %1 ]
  %7 = phi ptr [ %30, %28 ], [ %4, %1 ]
  %.012 = phi i64 [ %31, %28 ], [ 0, %1 ]
  %8 = getelementptr inbounds i32, ptr %6, i64 %.012
  %9 = load i32, ptr %8, align 4
  %10 = sext i32 %9 to i64
  %11 = shl i64 %.012, 1
  %.not = icmp eq i64 %11, %10
  br i1 %.not, label %28, label %12

12:                                               ; preds = %.lr.ph
  %13 = tail call noundef nonnull align 8 dereferenceable(8) ptr @_ZStlsISt11char_traitsIcEERSt13basic_ostreamIcT_ES5_PKc(ptr noundef nonnull align 8 dereferenceable(8) @_ZSt4cout, ptr noundef nonnull @.str.14)
  %14 = tail call noundef nonnull align 8 dereferenceable(8) ptr @_ZNSolsEm(ptr noundef nonnull align 8 dereferenceable(8) %13, i64 noundef %.012)
  %15 = tail call noundef nonnull align 8 dereferenceable(8) ptr @_ZStlsISt11char_traitsIcEERSt13basic_ostreamIcT_ES5_PKc(ptr noundef nonnull align 8 dereferenceable(8) %14, ptr noundef nonnull @.str.15)
  %16 = load ptr, ptr %0, align 8
  %17 = getelementptr inbounds i32, ptr %16, i64 %.012
  %18 = load i32, ptr %17, align 4
  %19 = tail call noundef nonnull align 8 dereferenceable(8) ptr @_ZNSolsEi(ptr noundef nonnull align 8 dereferenceable(8) %15, i32 noundef %18)
  %20 = tail call noundef nonnull align 8 dereferenceable(8) ptr @_ZNSolsEPFRSoS_E(ptr noundef nonnull align 8 dereferenceable(8) %19, ptr noundef nonnull @_ZSt4endlIcSt11char_traitsIcEERSt13basic_ostreamIT_T0_ES6_)
  %21 = load ptr, ptr %0, align 8
  %22 = getelementptr inbounds i32, ptr %21, i64 %.012
  %23 = load i32, ptr %22, align 4
  %24 = sext i32 %23 to i64
  %25 = icmp eq i64 %11, %24
  call void @llvm.lifetime.start.p0(i64 48, ptr nonnull %2)
  br i1 %25, label %_ZN32pxrInternal_v0_24__pxrReserved__14Tf_AxiomHelperEbRKNS_13TfCallContextEPKc.exit, label %26

26:                                               ; preds = %12
  store ptr @.str, ptr %2, align 8
  %.sroa.2.0..sroa_idx = getelementptr inbounds i8, ptr %2, i64 8
  store ptr @__func__._ZL14_VerifyDoubledRKSt6vectorIiSaIiEE, ptr %.sroa.2.0..sroa_idx, align 8
  %.sroa.3.0..sroa_idx = getelementptr inbounds i8, ptr %2, i64 16
  store i64 52, ptr %.sroa.3.0..sroa_idx, align 8
  %.sroa.4.0..sroa_idx = getelementptr inbounds i8, ptr %2, i64 24
  store ptr @__PRETTY_FUNCTION__._ZL14_VerifyDoubledRKSt6vectorIiSaIiEE, ptr %.sroa.4.0..sroa_idx, align 8
  %.sroa.5.0..sroa_idx = getelementptr inbounds i8, ptr %2, i64 32
  store i8 0, ptr %.sroa.5.0..sroa_idx, align 8
  %27 = getelementptr inbounds nuw i8, ptr %2, i64 40
  store i32 4, ptr %27, align 8
  call void (ptr, ptr, ...) @_ZNK32pxrInternal_v0_24__pxrReserved__23Tf_DiagnosticLiteHelper15IssueFatalErrorEPKcz(ptr noundef nonnull align 8 dereferenceable(44) %2, ptr noundef nonnull @.str.13, ptr noundef nonnull @.str.16) #22
  unreachable

_ZN32pxrInternal_v0_24__pxrReserved__14Tf_AxiomHelperEbRKNS_13TfCallContextEPKc.exit: ; preds = %12
  call void @llvm.lifetime.end.p0(i64 48, ptr nonnull %2)
  %.pre = load ptr, ptr %3, align 8
  br label %28

28:                                               ; preds = %.lr.ph, %_ZN32pxrInternal_v0_24__pxrReserved__14Tf_AxiomHelperEbRKNS_13TfCallContextEPKc.exit
  %29 = phi ptr [ %6, %.lr.ph ], [ %21, %_ZN32pxrInternal_v0_24__pxrReserved__14Tf_AxiomHelperEbRKNS_13TfCallContextEPKc.exit ]
  %30 = phi ptr [ %7, %.lr.ph ], [ %.pre, %_ZN32pxrInternal_v0_24__pxrReserved__14Tf_AxiomHelperEbRKNS_13TfCallContextEPKc.exit ]
  %31 = add nuw i64 %.012, 1
  %32 = ptrtoint ptr %30 to i64
  %33 = ptrtoint ptr %29 to i64
  %34 = sub i64 %32, %33
  %35 = ashr exact i64 %34, 2
  %36 = icmp ult i64 %31, %35
  br i1 %36, label %.lr.ph, label %._crit_edge, !llvm.loop !14

._crit_edge:                                      ; preds = %28, %1
  ret void
}